                        00001 	;
                        00002 	; Z80 instruction set test for GASM80	
                        00003 	;
                        00004 	; by Oscar Toledo G.
                        00005 	; https://nanochess.org/
                        00006 	;
                        00007 	; Creation date: Mar/03/2024.
                        00008 	;
                        00009 
                        00010 	CPU Z80
                        00011 
0000  00                00012 	NOP
0001  01BBAA            00013 	LD BC,$AABB
0004  02                00014 	LD (BC),A
0005  03                00015 	INC BC
0006  04                00016 	INC B
0007  05                00017 	DEC B
0008  0655              00018 	LD B,$55
000A  07                00019 	RLCA
000B  08                00020 	EX AF,AF'

000C  09                00021 	ADD HL,BC
000D  0A                00022 	LD A,(BC)
000E  0B                00023 	DEC BC
000F  0C                00024 	INC C
0010  0D                00025 	DEC C
0011  0E55              00026 	LD C,$55
0013  0F                00027 	RRCA
0014  100E              00028 	DJNZ $+16
0016  11BBAA            00029 	LD DE,$AABB
0019  12                00030 	LD (DE),A
001A  13                00031 	INC DE
001B  14                00032 	INC D
001C  15                00033 	DEC D
001D  1655              00034 	LD D,$55
001F  17                00035 	RLA
0020  180E              00036 	JR $+16
0022  19                00037 	ADD HL,DE
0023  1A                00038 	LD A,(DE)
0024  1B                00039 	DEC DE
0025  1C                00040 	INC E
0026  1D                00041 	DEC E
0027  1E55              00042 	LD E,$55
0029  1F                00043 	RRA
002A  200E              00044 	JR NZ,$+16
002C  21BBAA            00045 	LD HL,$AABB
002F  22BBAA            00046 	LD ($AABB),HL
0032  23                00047 	INC HL
0033  24                00048 	INC H
0034  25                00049 	DEC H
0035  2655              00050 	LD H,$55
0037  27                00051 	DAA
0038  280E              00052 	JR Z,$+16
003A  29                00053 	ADD HL,HL
003B  2ABBAA            00054 	LD HL,($AABB)
003E  2B                00055 	DEC HL
003F  2C                00056 	INC L
0040  2D                00057 	DEC L
0041  2E55              00058 	LD L,$55
0043  2F                00059 	CPL
0044  300E              00060 	JR NC,$+16
0046  31BBAA            00061 	LD SP,$AABB
0049  32BBAA            00062 	LD ($AABB),A
004C  33                00063 	INC SP
004D  34                00064 	INC (HL)
004E  35                00065 	DEC (HL)
004F  3655              00066 	LD (HL),$55
0051  37                00067 	SCF
0052  380E              00068 	JR C,$+16
0054  39                00069 	ADD HL,SP
0055  3ABBAA            00070 	LD A,($AABB)
0058  3B                00071 	DEC SP
0059  3C                00072 	INC A
005A  3D                00073 	DEC A
005B  3E55              00074 	LD A,$55
005D  3F                00075 	CCF
005E  40                00076 	LD B,B
005F  41                00077 	LD B,C
0060  42                00078 	LD B,D
0061  43                00079 	LD B,E
0062  44                00080 	LD B,H
0063  45                00081 	LD B,L
0064  46                00082 	LD B,(HL)
0065  47                00083 	LD B,A
0066  48                00084 	LD C,B
0067  49                00085 	LD C,C
0068  4A                00086 	LD C,D
0069  4B                00087 	LD C,E
006A  4C                00088 	LD C,H
006B  4D                00089 	LD C,L
006C  4E                00090 	LD C,(HL)
006D  4F                00091 	LD C,A
006E  50                00092 	LD D,B
006F  51                00093 	LD D,C
0070  52                00094 	LD D,D
0071  53                00095 	LD D,E
0072  54                00096 	LD D,H
0073  55                00097 	LD D,L
0074  56                00098 	LD D,(HL)
0075  57                00099 	LD D,A
0076  58                00100 	LD E,B
0077  59                00101 	LD E,C
0078  5A                00102 	LD E,D
0079  5B                00103 	LD E,E
007A  5C                00104 	LD E,H
007B  5D                00105 	LD E,L
007C  5E                00106 	LD E,(HL)
007D  5F                00107 	LD E,A
007E  60                00108 	LD H,B
007F  61                00109 	LD H,C
0080  62                00110 	LD H,D
0081  63                00111 	LD H,E
0082  64                00112 	LD H,H
0083  65                00113 	LD H,L
0084  66                00114 	LD H,(HL)
0085  67                00115 	LD H,A
0086  68                00116 	LD L,B
0087  69                00117 	LD L,C
0088  6A                00118 	LD L,D
0089  6B                00119 	LD L,E
008A  6C                00120 	LD L,H
008B  6D                00121 	LD L,L
008C  6E                00122 	LD L,(HL)
008D  6F                00123 	LD L,A
008E  70                00124 	LD (HL),B
008F  71                00125 	LD (HL),C
0090  72                00126 	LD (HL),D
0091  73                00127 	LD (HL),E
0092  74                00128 	LD (HL),H
0093  75                00129 	LD (HL),L
0094  76                00130 	HALT
0095  77                00131 	LD (HL),A
0096  78                00132 	LD A,B
0097  79                00133 	LD A,C
0098  7A                00134 	LD A,D
0099  7B                00135 	LD A,E
009A  7C                00136 	LD A,H
009B  7D                00137 	LD A,L
009C  7E                00138 	LD A,(HL)
009D  7F                00139 	LD A,A
009E  80                00140 	ADD A,B
009F  81                00141 	ADD A,C
00A0  82                00142 	ADD A,D
00A1  83                00143 	ADD A,E
00A2  84                00144 	ADD A,H
00A3  85                00145 	ADD A,L
00A4  86                00146 	ADD A,(HL)
00A5  87                00147 	ADD A,A
00A6  88                00148 	ADC A,B
00A7  89                00149 	ADC A,C
00A8  8A                00150 	ADC A,D
00A9  8B                00151 	ADC A,E
00AA  8C                00152 	ADC A,H
00AB  8D                00153 	ADC A,L
00AC  8E                00154 	ADC A,(HL)
00AD  8F                00155 	ADC A,A
00AE  90                00156 	SUB B
00AF  91                00157 	SUB C
00B0  92                00158 	SUB D
00B1  93                00159 	SUB E
00B2  94                00160 	SUB H
00B3  95                00161 	SUB L
00B4  96                00162 	SUB (HL)
00B5  97                00163 	SUB A
00B6  98                00164 	SBC A,B
00B7  99                00165 	SBC A,C
00B8  9A                00166 	SBC A,D
00B9  9B                00167 	SBC A,E
00BA  9C                00168 	SBC A,H
00BB  9D                00169 	SBC A,L
00BC  9E                00170 	SBC A,(HL)
00BD  9F                00171 	SBC A,A
00BE  A0                00172 	AND B
00BF  A1                00173 	AND C
00C0  A2                00174 	AND D
00C1  A3                00175 	AND E
00C2  A4                00176 	AND H
00C3  A5                00177 	AND L
00C4  A6                00178 	AND (HL)
00C5  A7                00179 	AND A
00C6  A8                00180 	XOR B
00C7  A9                00181 	XOR C
00C8  AA                00182 	XOR D
00C9  AB                00183 	XOR E
00CA  AC                00184 	XOR H
00CB  AD                00185 	XOR L
00CC  AE                00186 	XOR (HL)
00CD  AF                00187 	XOR A
00CE  B0                00188 	OR B
00CF  B1                00189 	OR C
00D0  B2                00190 	OR D
00D1  B3                00191 	OR E
00D2  B4                00192 	OR H
00D3  B5                00193 	OR L
00D4  B6                00194 	OR (HL)
00D5  B7                00195 	OR A
00D6  B8                00196 	CP B
00D7  B9                00197 	CP C
00D8  BA                00198 	CP D
00D9  BB                00199 	CP E
00DA  BC                00200 	CP H
00DB  BD                00201 	CP L
00DC  BE                00202 	CP (HL)
00DD  BF                00203 	CP A
00DE  C0                00204 	RET NZ
00DF  C1                00205 	POP BC
00E0  C2BBAA            00206 	JP NZ,$AABB
00E3  C3BBAA            00207 	JP $AABB
00E6  C4BBAA            00208 	CALL NZ,$AABB
00E9  C5                00209 	PUSH BC
00EA  C655              00210 	ADD A,$55
00EC  C7                00211 	RST 0
00ED  C8                00212 	RET Z
00EE  C9                00213 	RET
00EF  CABBAA            00214 	JP Z,$AABB
00F2  CB00              00215 	RLC B
00F4  CB01              00216 	RLC C
00F6  CB02              00217 	RLC D
00F8  CB03              00218 	RLC E
00FA  CB04              00219 	RLC H
00FC  CB05              00220 	RLC L
00FE  CB06              00221 	RLC (HL)
0100  CB07              00222 	RLC A
0102  CB08              00223 	RRC B
0104  CB09              00224 	RRC C
0106  CB0A              00225 	RRC D
0108  CB0B              00226 	RRC E
010A  CB0C              00227 	RRC H
010C  CB0D              00228 	RRC L
010E  CB0E              00229 	RRC (HL)
0110  CB0F              00230 	RRC A
0112  CB10              00231 	RL B
0114  CB11              00232 	RL C
0116  CB12              00233 	RL D
0118  CB13              00234 	RL E
011A  CB14              00235 	RL H
011C  CB15              00236 	RL L
011E  CB16              00237 	RL (HL)
0120  CB17              00238 	RL A
0122  CB18              00239 	RR B
0124  CB19              00240 	RR C
0126  CB1A              00241 	RR D
0128  CB1B              00242 	RR E
012A  CB1C              00243 	RR H
012C  CB1D              00244 	RR L
012E  CB1E              00245 	RR (HL)
0130  CB1F              00246 	RR A
0132  CB20              00247 	SLA B
0134  CB21              00248 	SLA C
0136  CB22              00249 	SLA D
0138  CB23              00250 	SLA E
013A  CB24              00251 	SLA H
013C  CB25              00252 	SLA L
013E  CB26              00253 	SLA (HL)
0140  CB27              00254 	SLA A
0142  CB28              00255 	SRA B
0144  CB29              00256 	SRA C
0146  CB2A              00257 	SRA D
0148  CB2B              00258 	SRA E
014A  CB2C              00259 	SRA H
014C  CB2D              00260 	SRA L
014E  CB2E              00261 	SRA (HL)
0150  CB2F              00262 	SRA A
0152  CB38              00263 	SRL B
0154  CB39              00264 	SRL C
0156  CB3A              00265 	SRL D
0158  CB3B              00266 	SRL E
015A  CB3C              00267 	SRL H
015C  CB3D              00268 	SRL L
015E  CB3E              00269 	SRL (HL)
0160  CB3F              00270 	SRL A
0162  CB40              00271 	BIT 0,B
0164  CB41              00272 	BIT 0,C
0166  CB42              00273 	BIT 0,D
0168  CB43              00274 	BIT 0,E
016A  CB44              00275 	BIT 0,H
016C  CB45              00276 	BIT 0,L
016E  CB46              00277 	BIT 0,(HL)
0170  CB47              00278 	BIT 0,A
0172  CB48              00279 	BIT 1,B
0174  CB49              00280 	BIT 1,C
0176  CB4A              00281 	BIT 1,D
0178  CB4B              00282 	BIT 1,E
017A  CB4C              00283 	BIT 1,H
017C  CB4D              00284 	BIT 1,L
017E  CB4E              00285 	BIT 1,(HL)
0180  CB4F              00286 	BIT 1,A
0182  CB50              00287 	BIT 2,B
0184  CB51              00288 	BIT 2,C
0186  CB52              00289 	BIT 2,D
0188  CB53              00290 	BIT 2,E
018A  CB54              00291 	BIT 2,H
018C  CB55              00292 	BIT 2,L
018E  CB56              00293 	BIT 2,(HL)
0190  CB57              00294 	BIT 2,A
0192  CB58              00295 	BIT 3,B
0194  CB59              00296 	BIT 3,C
0196  CB5A              00297 	BIT 3,D
0198  CB5B              00298 	BIT 3,E
019A  CB5C              00299 	BIT 3,H
019C  CB5D              00300 	BIT 3,L
019E  CB5E              00301 	BIT 3,(HL)
01A0  CB5F              00302 	BIT 3,A
01A2  CB60              00303 	BIT 4,B
01A4  CB61              00304 	BIT 4,C
01A6  CB62              00305 	BIT 4,D
01A8  CB63              00306 	BIT 4,E
01AA  CB64              00307 	BIT 4,H
01AC  CB65              00308 	BIT 4,L
01AE  CB66              00309 	BIT 4,(HL)
01B0  CB67              00310 	BIT 4,A
01B2  CB68              00311 	BIT 5,B
01B4  CB69              00312 	BIT 5,C
01B6  CB6A              00313 	BIT 5,D
01B8  CB6B              00314 	BIT 5,E
01BA  CB6C              00315 	BIT 5,H
01BC  CB6D              00316 	BIT 5,L
01BE  CB6E              00317 	BIT 5,(HL)
01C0  CB6F              00318 	BIT 5,A
01C2  CB70              00319 	BIT 6,B
01C4  CB71              00320 	BIT 6,C
01C6  CB72              00321 	BIT 6,D
01C8  CB73              00322 	BIT 6,E
01CA  CB74              00323 	BIT 6,H
01CC  CB75              00324 	BIT 6,L
01CE  CB76              00325 	BIT 6,(HL)
01D0  CB77              00326 	BIT 6,A
01D2  CB78              00327 	BIT 7,B
01D4  CB79              00328 	BIT 7,C
01D6  CB7A              00329 	BIT 7,D
01D8  CB7B              00330 	BIT 7,E
01DA  CB7C              00331 	BIT 7,H
01DC  CB7D              00332 	BIT 7,L
01DE  CB7E              00333 	BIT 7,(HL)
01E0  CB7F              00334 	BIT 7,A
01E2  CB80              00335 	RES 0,B
01E4  CB81              00336 	RES 0,C
01E6  CB82              00337 	RES 0,D
01E8  CB83              00338 	RES 0,E
01EA  CB84              00339 	RES 0,H
01EC  CB85              00340 	RES 0,L
01EE  CB86              00341 	RES 0,(HL)
01F0  CB87              00342 	RES 0,A
01F2  CB88              00343 	RES 1,B
01F4  CB89              00344 	RES 1,C
01F6  CB8A              00345 	RES 1,D
01F8  CB8B              00346 	RES 1,E
01FA  CB8C              00347 	RES 1,H
01FC  CB8D              00348 	RES 1,L
01FE  CB8E              00349 	RES 1,(HL)
0200  CB8F              00350 	RES 1,A
0202  CB90              00351 	RES 2,B
0204  CB91              00352 	RES 2,C
0206  CB92              00353 	RES 2,D
0208  CB93              00354 	RES 2,E
020A  CB94              00355 	RES 2,H
020C  CB95              00356 	RES 2,L
020E  CB96              00357 	RES 2,(HL)
0210  CB97              00358 	RES 2,A
0212  CB98              00359 	RES 3,B
0214  CB99              00360 	RES 3,C
0216  CB9A              00361 	RES 3,D
0218  CB9B              00362 	RES 3,E
021A  CB9C              00363 	RES 3,H
021C  CB9D              00364 	RES 3,L
021E  CB9E              00365 	RES 3,(HL)
0220  CB9F              00366 	RES 3,A
0222  CBA0              00367 	RES 4,B
0224  CBA1              00368 	RES 4,C
0226  CBA2              00369 	RES 4,D
0228  CBA3              00370 	RES 4,E
022A  CBA4              00371 	RES 4,H
022C  CBA5              00372 	RES 4,L
022E  CBA6              00373 	RES 4,(HL)
0230  CBA7              00374 	RES 4,A
0232  CBA8              00375 	RES 5,B
0234  CBA9              00376 	RES 5,C
0236  CBAA              00377 	RES 5,D
0238  CBAB              00378 	RES 5,E
023A  CBAC              00379 	RES 5,H
023C  CBAD              00380 	RES 5,L
023E  CBAE              00381 	RES 5,(HL)
0240  CBAF              00382 	RES 5,A
0242  CBB0              00383 	RES 6,B
0244  CBB1              00384 	RES 6,C
0246  CBB2              00385 	RES 6,D
0248  CBB3              00386 	RES 6,E
024A  CBB4              00387 	RES 6,H
024C  CBB5              00388 	RES 6,L
024E  CBB6              00389 	RES 6,(HL)
0250  CBB7              00390 	RES 6,A
0252  CBB8              00391 	RES 7,B
0254  CBB9              00392 	RES 7,C
0256  CBBA              00393 	RES 7,D
0258  CBBB              00394 	RES 7,E
025A  CBBC              00395 	RES 7,H
025C  CBBD              00396 	RES 7,L
025E  CBBE              00397 	RES 7,(HL)
0260  CBBF              00398 	RES 7,A
0262  CBC0              00399 	SET 0,B
0264  CBC1              00400 	SET 0,C
0266  CBC2              00401 	SET 0,D
0268  CBC3              00402 	SET 0,E
026A  CBC4              00403 	SET 0,H
026C  CBC5              00404 	SET 0,L
026E  CBC6              00405 	SET 0,(HL)
0270  CBC7              00406 	SET 0,A
0272  CBC8              00407 	SET 1,B
0274  CBC9              00408 	SET 1,C
0276  CBCA              00409 	SET 1,D
0278  CBCB              00410 	SET 1,E
027A  CBCC              00411 	SET 1,H
027C  CBCD              00412 	SET 1,L
027E  CBCE              00413 	SET 1,(HL)
0280  CBCF              00414 	SET 1,A
0282  CBD0              00415 	SET 2,B
0284  CBD1              00416 	SET 2,C
0286  CBD2              00417 	SET 2,D
0288  CBD3              00418 	SET 2,E
028A  CBD4              00419 	SET 2,H
028C  CBD5              00420 	SET 2,L
028E  CBD6              00421 	SET 2,(HL)
0290  CBD7              00422 	SET 2,A
0292  CBD8              00423 	SET 3,B
0294  CBD9              00424 	SET 3,C
0296  CBDA              00425 	SET 3,D
0298  CBDB              00426 	SET 3,E
029A  CBDC              00427 	SET 3,H
029C  CBDD              00428 	SET 3,L
029E  CBDE              00429 	SET 3,(HL)
02A0  CBDF              00430 	SET 3,A
02A2  CBE0              00431 	SET 4,B
02A4  CBE1              00432 	SET 4,C
02A6  CBE2              00433 	SET 4,D
02A8  CBE3              00434 	SET 4,E
02AA  CBE4              00435 	SET 4,H
02AC  CBE5              00436 	SET 4,L
02AE  CBE6              00437 	SET 4,(HL)
02B0  CBE7              00438 	SET 4,A
02B2  CBE8              00439 	SET 5,B
02B4  CBE9              00440 	SET 5,C
02B6  CBEA              00441 	SET 5,D
02B8  CBEB              00442 	SET 5,E
02BA  CBEC              00443 	SET 5,H
02BC  CBED              00444 	SET 5,L
02BE  CBEE              00445 	SET 5,(HL)
02C0  CBEF              00446 	SET 5,A
02C2  CBF0              00447 	SET 6,B
02C4  CBF1              00448 	SET 6,C
02C6  CBF2              00449 	SET 6,D
02C8  CBF3              00450 	SET 6,E
02CA  CBF4              00451 	SET 6,H
02CC  CBF5              00452 	SET 6,L
02CE  CBF6              00453 	SET 6,(HL)
02D0  CBF7              00454 	SET 6,A
02D2  CBF8              00455 	SET 7,B
02D4  CBF9              00456 	SET 7,C
02D6  CBFA              00457 	SET 7,D
02D8  CBFB              00458 	SET 7,E
02DA  CBFC              00459 	SET 7,H
02DC  CBFD              00460 	SET 7,L
02DE  CBFE              00461 	SET 7,(HL)
02E0  CBFF              00462 	SET 7,A
02E2  CCBBAA            00463 	CALL Z,$AABB
02E5  CDBBAA            00464 	CALL $AABB
02E8  CE55              00465 	ADC A,$55
02EA  CF                00466 	RST 8
02EB  D0                00467 	RET NC
02EC  D1                00468 	POP DE
02ED  D2BBAA            00469 	JP NC,$AABB
02F0  D355              00470 	OUT ($55),A
02F2  D4BBAA            00471 	CALL NC,$AABB
02F5  D5                00472 	PUSH DE
02F6  D655              00473 	SUB $55
02F8  D7                00474 	RST 16
02F9  D8                00475 	RET C
02FA  D9                00476 	EXX
02FB  DABBAA            00477 	JP C,$AABB
02FE  DB55              00478 	IN A,($55)
0300  DCBBAA            00479 	CALL C,$AABB	
0303  DD09              00480 	ADD IX,BC
0305  DD19              00481 	ADD IX,DE
0307  DD21BBAA          00482 	LD IX,$AABB
030B  DD22BBAA          00483 	LD ($AABB),IX
030F  DD23              00484 	INC IX
0311  DD29              00485 	ADD IX,IX
0313  DD2ABBAA          00486 	LD IX,($AABB)
0317  DD2B              00487 	DEC IX
0319  DD3605BB          00488 	LD (IX+5),$BB
031D  DD39              00489 	ADD IX,SP
031F  DD4605            00490 	LD B,(IX+5)
0322  DD4E05            00491 	LD C,(IX+5)
0325  DD5605            00492 	LD D,(IX+5)
0328  DD5E05            00493 	LD E,(IX+5)
032B  DD6605            00494 	LD H,(IX+5)
032E  DD6E05            00495 	LD L,(IX+5)
0331  DD7005            00496 	LD (IX+5),B
0334  DD7105            00497 	LD (IX+5),C
0337  DD7205            00498 	LD (IX+5),D
033A  DD7305            00499 	LD (IX+5),E
033D  DD7405            00500 	LD (IX+5),H
0340  DD7505            00501 	LD (IX+5),L
0343  DD7705            00502 	LD (IX+5),A
0346  DD7E05            00503 	LD A,(IX+5)
0349  DD8605            00504 	ADD A,(IX+5)
034C  DD8E05            00505 	ADC A,(IX+5)
034F  DD9605            00506 	SUB (IX+5)
0352  DD9E05            00507 	SBC A,(IX+5)
0355  DDA605            00508 	AND (IX+5)
0358  DDAE05            00509 	XOR (IX+5)
035B  DDB605            00510 	OR (IX+5)
035E  DDBE05            00511 	CP (IX+5)
0361  DDCB0506          00512 	RLC (IX+5)
0365  DDCB050E          00513 	RRC (IX+5)
0369  DDCB0516          00514 	RL (IX+5)
036D  DDCB051E          00515 	RR (IX+5)
0371  DDCB0526          00516 	SLA (IX+5)
0375  DDCB052E          00517 	SRA (IX+5)
0379  DDCB053E          00518 	SRL (IX+5)
037D  DDCB0546          00519 	BIT 0,(IX+5)
0381  DDCB057E          00520 	BIT 7,(IX+5)
0385  DDCB0586          00521 	RES 0,(IX+5)
0389  DDCB05BE          00522 	RES 7,(IX+5)
038D  DDCB05C6          00523 	SET 0,(IX+5)
0391  DDCB05FE          00524 	SET 7,(IX+5)
0395  DDE1              00525 	POP IX
0397  DDE3              00526 	EX (SP),IX
0399  DDE5              00527 	PUSH IX
039B  DDE9              00528 	JP (IX)
039D  DDF9              00529 	LD SP,IX
039F  DE55              00530 	SBC A,$55
03A1  DF                00531 	RST 24
03A2  E0                00532 	RET PO
03A3  E1                00533 	POP HL
03A4  E2BBAA            00534 	JP PO,$AABB
03A7  E3                00535 	EX (SP),HL
03A8  E4BBAA            00536 	CALL PO,$AABB
03AB  E5                00537 	PUSH HL
03AC  E655              00538 	AND $55
03AE  E7                00539 	RST 32
03AF  E8                00540 	RET PE
03B0  E9                00541 	JP (HL)
03B1  EABBAA            00542 	JP PE,$AABB
03B4  EB                00543 	EX DE,HL
03B5  ECBBAA            00544 	CALL PE,$AABB
03B8  ED40              00545 	IN B,(C)
03BA  ED41              00546 	OUT (C),B
03BC  ED42              00547 	SBC HL,BC
03BE  ED43BBAA          00548 	LD ($AABB),BC
03C2  ED44              00549 	NEG
03C4  ED45              00550 	RETN
03C6  ED46              00551 	IM 0
03C8  ED47              00552 	LD I,A
03CA  ED48              00553 	IN C,(C)
03CC  ED49              00554 	OUT (C),C
03CE  ED4A              00555 	ADC HL,BC
03D0  ED4BBBAA          00556 	LD BC,($AABB)
03D4  ED4D              00557 	RETI
03D6  ED4F              00558 	LD R,A
03D8  ED50              00559 	IN D,(C)
03DA  ED51              00560 	OUT (C),D
03DC  ED52              00561 	SBC HL,DE
03DE  ED53BBAA          00562 	LD ($AABB),DE
03E2  ED56              00563 	IM 1
03E4  ED57              00564 	LD A,I
03E6  ED58              00565 	IN E,(C)
03E8  ED59              00566 	OUT (C),E
03EA  ED5A              00567 	ADC HL,DE
03EC  ED5BBBAA          00568 	LD DE,($AABB)
03F0  ED5E              00569 	IM 2
03F2  ED5F              00570 	LD A,R
03F4  ED62              00571 	SBC HL,HL
03F6  ED67              00572 	RRD
03F8  ED6A              00573 	ADC HL,HL
03FA  ED6F              00574 	RLD
03FC  ED72              00575 	SBC HL,SP
03FE  ED73BBAA          00576 	LD ($AABB),SP
0402  ED7A              00577 	ADC HL,SP
0404  ED7BBBAA          00578 	LD SP,($AABB)
0408  EDA0              00579 	LDI
040A  EDA1              00580 	CPI
040C  EDA2              00581 	INI
040E  EDA3              00582 	OUTI
0410  EDA8              00583 	LDD
0412  EDA9              00584 	CPD
0414  EDAA              00585 	IND
0416  EDAB              00586 	OUTD
0418  EDB0              00587 	LDIR
041A  EDB1              00588 	CPIR
041C  EDB2              00589 	INIR
041E  EDB3              00590 	OTIR
0420  EDB8              00591 	LDDR
0422  EDB9              00592 	CPDR
0424  EDBA              00593 	INDR
0426  EDBB              00594 	OTDR
0428  EE55              00595 	XOR $55
042A  EF                00596 	RST 40
042B  F0                00597 	RET P
042C  F1                00598 	POP AF
042D  F2BBAA            00599 	JP P,$AABB
0430  F3                00600 	DI
0431  F4BBAA            00601 	CALL P,$AABB
0434  F5                00602 	PUSH AF
0435  F655              00603 	OR $55
0437  F7                00604 	RST $30
0438  F8                00605 	RET M
0439  F9                00606 	LD SP,HL
043A  FABBAA            00607 	JP M,$AABB
043D  FB                00608 	EI
043E  FCBBAA            00609 	CALL M,$AABB
0441  FD09              00610 	ADD IY,BC
0443  FD19              00611 	ADD IY,DE
0445  FD21BBAA          00612 	LD IY,$AABB
0449  FD22BBAA          00613 	LD ($AABB),IY
044D  FD23              00614 	INC IY
044F  FD29              00615 	ADD IY,IY
0451  FD2ABBAA          00616 	LD IY,($AABB)
0455  FD2B              00617 	DEC IY
0457  FD3605BB          00618 	LD (IY+5),$BB
045B  FD39              00619 	ADD IY,SP
045D  FD4605            00620 	LD B,(IY+5)
0460  FD4E05            00621 	LD C,(IY+5)
0463  FD5605            00622 	LD D,(IY+5)
0466  FD5E05            00623 	LD E,(IY+5)
0469  FD6605            00624 	LD H,(IY+5)
046C  FD6E05            00625 	LD L,(IY+5)
046F  FD7005            00626 	LD (IY+5),B
0472  FD7105            00627 	LD (IY+5),C
0475  FD7205            00628 	LD (IY+5),D
0478  FD7305            00629 	LD (IY+5),E
047B  FD7405            00630 	LD (IY+5),H
047E  FD7505            00631 	LD (IY+5),L
0481  FD7705            00632 	LD (IY+5),A
0484  FD7E05            00633 	LD A,(IY+5)
0487  FD8605            00634 	ADD A,(IY+5)
048A  FD8E05            00635 	ADC A,(IY+5)
048D  FD9605            00636 	SUB (IY+5)
0490  FD9E05            00637 	SBC A,(IY+5)
0493  FDA605            00638 	AND (IY+5)
0496  FDAE05            00639 	XOR (IY+5)
0499  FDB605            00640 	OR (IY+5)
049C  FDBE05            00641 	CP (IY+5)
049F  FDCB0506          00642 	RLC (IY+5)
04A3  FDCB050E          00643 	RRC (IY+5)
04A7  FDCB0516          00644 	RL (IY+5)
04AB  FDCB051E          00645 	RR (IY+5)
04AF  FDCB0526          00646 	SLA (IY+5)
04B3  FDCB052E          00647 	SRA (IY+5)
04B7  FDCB053E          00648 	SRL (IY+5)
04BB  FDCB0546          00649 	BIT 0,(IY+5)
04BF  FDCB057E          00650 	BIT 7,(IY+5)
04C3  FDCB0586          00651 	RES 0,(IY+5)
04C7  FDCB05BE          00652 	RES 7,(IY+5)
04CB  FDCB05C6          00653 	SET 0,(IY+5)
04CF  FDCB05FE          00654 	SET 7,(IY+5)
04D3  FDE1              00655 	POP IY
04D5  FDE3              00656 	EX (SP),IY
04D7  FDE5              00657 	PUSH IY
04D9  FDE9              00658 	JP (IY)
04DB  FDF9              00659 	LD SP,IY
04DD  FE55              00660 	CP $55
04DF  FF                00661 	RST $38
04E0                    00662 
04E0                    00663 	; Undocumented instructions
04E0  DD24              00664 	INC IXH
04E2  DD25              00665 	DEC IXH
04E4  DD2655            00666 	LD IXH,$55
04E7  DD2C              00667 	INC IXL
04E9  DD2D              00668 	DEC IXL
04EB  DD2E55            00669 	LD IXL,$55
04EE  DD44              00670 	LD B,IXH
04F0  DD45              00671 	LD B,IXL
04F2  DD4C              00672 	LD C,IXH
04F4  DD4D              00673 	LD C,IXL
04F6  DD54              00674 	LD D,IXH
04F8  DD55              00675 	LD D,IXL
04FA  DD5C              00676 	LD E,IXH
04FC  DD5D              00677 	LD E,IXL
04FE  DD60              00678 	LD IXH,B
0500  DD61              00679 	LD IXH,C
0502  DD62              00680 	LD IXH,D
0504  DD63              00681 	LD IXH,E
0506  DD64              00682 	LD IXH,IXH
0508  DD65              00683 	LD IXH,IXL
050A  DD67              00684 	LD IXH,A
050C  DD68              00685 	LD IXL,B
050E  DD69              00686 	LD IXL,C
0510  DD6A              00687 	LD IXL,D
0512  DD6B              00688 	LD IXL,E
0514  DD6C              00689 	LD IXL,IXH
0516  DD6D              00690 	LD IXL,IXL
0518  DD6F              00691 	LD IXL,A
051A  DD7C              00692 	LD A,IXH
051C  DD7D              00693 	LD A,IXL
051E  DD84              00694 	ADD A,IXH
0520  DD85              00695 	ADD A,IXL
0522  DD8C              00696 	ADC A,IXH
0524  DD8D              00697 	ADC A,IXL
0526  DD94              00698 	SUB IXH
0528  DD95              00699 	SUB IXL
052A  DD9C              00700 	SBC A,IXH
052C  DD9D              00701 	SBC A,IXL
052E  DDA4              00702 	AND IXH
0530  DDA5              00703 	AND IXL
0532  DDAC              00704 	XOR IXH
0534  DDAD              00705 	XOR IXL
0536  DDB4              00706 	OR IXH
0538  DDB5              00707 	OR IXL
053A  DDBC              00708 	CP IXH
053C  DDBD              00709 	CP IXL
053E                    00710 
053E  FD24              00711 	INC IYH
0540  FD25              00712 	DEC IYH
0542  FD2655            00713 	LD IYH,$55
0545  FD2C              00714 	INC IYL
0547  FD2D              00715 	DEC IYL
0549  FD2E55            00716 	LD IYL,$55
054C  FD44              00717 	LD B,IYH
054E  FD45              00718 	LD B,IYL
0550  FD4C              00719 	LD C,IYH
0552  FD4D              00720 	LD C,IYL
0554  FD54              00721 	LD D,IYH
0556  FD55              00722 	LD D,IYL
0558  FD5C              00723 	LD E,IYH
055A  FD5D              00724 	LD E,IYL
055C  FD60              00725 	LD IYH,B
055E  FD61              00726 	LD IYH,C
0560  FD62              00727 	LD IYH,D
0562  FD63              00728 	LD IYH,E
0564  FD64              00729 	LD IYH,IYH
0566  FD65              00730 	LD IYH,IYL
0568  FD67              00731 	LD IYH,A
056A  FD68              00732 	LD IYL,B
056C  FD69              00733 	LD IYL,C
056E  FD6A              00734 	LD IYL,D
0570  FD6B              00735 	LD IYL,E
0572  FD6C              00736 	LD IYL,IYH
0574  FD6D              00737 	LD IYL,IYL
0576  FD6F              00738 	LD IYL,A
0578  FD7C              00739 	LD A,IYH
057A  FD7D              00740 	LD A,IYL
057C  FD84              00741 	ADD A,IYH
057E  FD85              00742 	ADD A,IYL
0580  FD8C              00743 	ADC A,IYH
0582  FD8D              00744 	ADC A,IYL
0584  FD94              00745 	SUB IYH
0586  FD95              00746 	SUB IYL
0588  FD9C              00747 	SBC A,IYH
058A  FD9D              00748 	SBC A,IYL
058C  FDA4              00749 	AND IYH
058E  FDA5              00750 	AND IYL
0590  FDAC              00751 	XOR IYH
0592  FDAD              00752 	XOR IYL
0594  FDB4              00753 	OR IYH
0596  FDB5              00754 	OR IYL
0598  FDBC              00755 	CP IYH
059A  FDBD              00756 	CP IYL
059C  CB30              00757 	SLL B
059E  CB31              00758 	SLL C
05A0  CB32              00759 	SLL D
05A2  CB33              00760 	SLL E
05A4  CB34              00761 	SLL H
05A6  CB35              00762 	SLL L
05A8  CB36              00763 	SLL (HL)
05AA  CB37              00764 	SLL A

00000 ERRORS FOUND
00000 WARNINGS FOUND

01452 PROGRAM BYTES

